; Function Attrs: nounwind uwtable
define ptr @l_Lean_Expr_arrow_x3f___boxed(ptr noundef %0) local_unnamed_addr #0 {
  %2 = tail call ptr @l_Lean_Expr_arrow_x3f(ptr noundef %0)
  %3 = ptrtoint ptr %0 to i64
  %4 = and i64 %3, 1
  %.not = icmp eq i64 %4, 0
  br i1 %.not, label %5, label %lean_dec.exit

5:                                                ; preds = %1
  %6 = load i32, ptr %0, align 4, !tbaa !8
  %7 = icmp sgt i32 %6, 1
  br i1 %7, label %8, label %10, !prof !11

8:                                                ; preds = %5
  %9 = add nsw i32 %6, -1
  store i32 %9, ptr %0, align 4, !tbaa !8
  br label %lean_dec.exit

10:                                               ; preds = %5
  %.not.i = icmp eq i32 %6, 0
  br i1 %.not.i, label %lean_dec.exit, label %11

11:                                               ; preds = %10
  tail call void @lean_dec_ref_cold(ptr noundef nonnull %0) #4
  br label %lean_dec.exit

lean_dec.exit:                                    ; preds = %11, %10, %8, %1
  ret ptr %2
}